; Function Attrs: mustprogress uwtable
define noundef ptr @_ZN6google8protobuf8internal25RepeatedPrimitiveDefaults16default_instanceEv() local_unnamed_addr #8 align 2 personality ptr @__gxx_personality_v0 {
  %1 = load atomic i8, ptr @_ZGVZN6google8protobuf8internal25RepeatedPrimitiveDefaults16default_instanceEvE8instance acquire, align 8
  %2 = icmp eq i8 %1, 0
  br i1 %2, label %3, label %9, !prof !7

3:                                                ; preds = %0
  %4 = tail call i32 @__cxa_guard_acquire(ptr nonnull @_ZGVZN6google8protobuf8internal25RepeatedPrimitiveDefaults16default_instanceEvE8instance) #23
  %.not = icmp eq i32 %4, 0
  br i1 %.not, label %9, label %5

5:                                                ; preds = %3
  %6 = invoke noalias noundef nonnull dereferenceable(112) ptr @_Znwm(i64 noundef 112) #24
          to label %7 unwind label %11

7:                                                ; preds = %5
  invoke void @_ZN6google8protobuf8internal25RepeatedPrimitiveDefaultsC2Ev(ptr noundef nonnull align 8 dereferenceable(112) %6)
          to label %8 unwind label %13

8:                                                ; preds = %7
  invoke void @_ZN6google8protobuf8internal13OnShutdownRunEPFvPKvES3_(ptr noundef nonnull @_ZZN6google8protobuf8internal16OnShutdownDeleteINS1_25RepeatedPrimitiveDefaultsEEEPT_S5_ENUlPKvE_8__invokeES7_, ptr noundef nonnull %6)
          to label %_ZN6google8protobuf8internal16OnShutdownDeleteINS1_25RepeatedPrimitiveDefaultsEEEPT_S5_.exit unwind label %11

_ZN6google8protobuf8internal16OnShutdownDeleteINS1_25RepeatedPrimitiveDefaultsEEEPT_S5_.exit: ; preds = %8
  store ptr %6, ptr @_ZZN6google8protobuf8internal25RepeatedPrimitiveDefaults16default_instanceEvE8instance, align 8
  tail call void @__cxa_guard_release(ptr nonnull @_ZGVZN6google8protobuf8internal25RepeatedPrimitiveDefaults16default_instanceEvE8instance) #23
  br label %9

9:                                                ; preds = %_ZN6google8protobuf8internal16OnShutdownDeleteINS1_25RepeatedPrimitiveDefaultsEEEPT_S5_.exit, %3, %0
  %10 = load ptr, ptr @_ZZN6google8protobuf8internal25RepeatedPrimitiveDefaults16default_instanceEvE8instance, align 8
  ret ptr %10

11:                                               ; preds = %8, %5
  %12 = landingpad { ptr, i32 }
          cleanup
  br label %15

13:                                               ; preds = %7
  %14 = landingpad { ptr, i32 }
          cleanup
  tail call void @_ZdlPvm(ptr noundef nonnull %6, i64 noundef 112) #26
  br label %15

15:                                               ; preds = %13, %11
  %.pn = phi { ptr, i32 } [ %12, %11 ], [ %14, %13 ]
  tail call void @__cxa_guard_abort(ptr nonnull @_ZGVZN6google8protobuf8internal25RepeatedPrimitiveDefaults16default_instanceEvE8instance) #23
  resume { ptr, i32 } %.pn
}